target datalayout = "e-m:e-p270:32:32-p271:32:32-p272:64:64-i64:64-i128:128-f80:128-n8:16:32:64-S128"
target triple = "x86_64-pc-linux-gnu"

%union.anon.8 = type { ptr }

@.str.8 = private unnamed_addr constant [17 x i8] c"DIMENSION_LABELS\00", align 1

; Function Attrs: nounwind uwtable
define i64 @H5DSget_label(i64 noundef %0, i32 noundef %1, ptr noundef %2, i64 noundef %3) #0 {
  %5 = alloca i64, align 8
  %6 = alloca i64, align 8
  %7 = alloca i32, align 4
  %8 = alloca ptr, align 8
  %9 = alloca i64, align 8
  %10 = alloca i32, align 4
  %11 = alloca i64, align 8
  %12 = alloca i64, align 8
  %13 = alloca i64, align 8
  %14 = alloca i32, align 4
  %15 = alloca ptr, align 8
  %16 = alloca i32, align 4
  %17 = alloca i64, align 8
  %18 = alloca i64, align 8
  %19 = alloca i32, align 4
  %20 = alloca i32, align 4
  %21 = alloca i32, align 4
  %22 = alloca %union.anon.8, align 8
  %23 = alloca ptr, align 8
  store i64 %0, ptr %6, align 8, !tbaa !3
  store i32 %1, ptr %7, align 4, !tbaa !16
  store ptr %2, ptr %8, align 8, !tbaa !14
  store i64 %3, ptr %9, align 8, !tbaa !3
  call void @llvm.lifetime.start.p0(i64 4, ptr %10) #10
  call void @llvm.lifetime.start.p0(i64 8, ptr %11) #10
  store i64 -1, ptr %11, align 8, !tbaa !3
  call void @llvm.lifetime.start.p0(i64 8, ptr %12) #10
  store i64 -1, ptr %12, align 8, !tbaa !3
  call void @llvm.lifetime.start.p0(i64 8, ptr %13) #10
  store i64 -1, ptr %13, align 8, !tbaa !3
  call void @llvm.lifetime.start.p0(i64 4, ptr %14) #10
  call void @llvm.lifetime.start.p0(i64 8, ptr %15) #10
  store ptr null, ptr %15, align 8, !tbaa !56
  call void @llvm.lifetime.start.p0(i64 4, ptr %16) #10
  call void @llvm.lifetime.start.p0(i64 8, ptr %17) #10
  store i64 0, ptr %17, align 8, !tbaa !3
  call void @llvm.lifetime.start.p0(i64 8, ptr %18) #10
  call void @llvm.lifetime.start.p0(i64 4, ptr %19) #10
  %24 = load i64, ptr %6, align 8, !tbaa !3
  %25 = call i32 @H5Iget_type(i64 noundef %24)
  store i32 %25, ptr %16, align 4, !tbaa !16
  %26 = icmp slt i32 %25, 0
  br i1 %26, label %27, label %28

27:                                               ; preds = %4
  store i64 -1, ptr %5, align 8
  store i32 1, ptr %20, align 4
  br label %225

28:                                               ; preds = %4
  %29 = load i32, ptr %16, align 4, !tbaa !16
  %30 = icmp ne i32 5, %29
  br i1 %30, label %31, label %32

31:                                               ; preds = %28
  store i64 -1, ptr %5, align 8
  store i32 1, ptr %20, align 4
  br label %225

32:                                               ; preds = %28
  %33 = load i64, ptr %6, align 8, !tbaa !3
  %34 = call i64 @H5Dget_space(i64 noundef %33)
  store i64 %34, ptr %11, align 8, !tbaa !3
  %35 = icmp slt i64 %34, 0
  br i1 %35, label %36, label %37

36:                                               ; preds = %32
  store i64 -1, ptr %5, align 8
  store i32 1, ptr %20, align 4
  br label %225

37:                                               ; preds = %32
  %38 = load i64, ptr %11, align 8, !tbaa !3
  %39 = call i32 @H5Sget_simple_extent_ndims(i64 noundef %38)
  store i32 %39, ptr %14, align 4, !tbaa !16
  %40 = icmp slt i32 %39, 0
  br i1 %40, label %41, label %42

41:                                               ; preds = %37
  br label %170

42:                                               ; preds = %37
  %43 = load i64, ptr %11, align 8, !tbaa !3
  %44 = call i32 @H5Sclose(i64 noundef %43)
  %45 = icmp slt i32 %44, 0
  br i1 %45, label %46, label %47

46:                                               ; preds = %42
  br label %170

47:                                               ; preds = %42
  %48 = load i32, ptr %7, align 4, !tbaa !16
  %49 = load i32, ptr %14, align 4, !tbaa !16
  %50 = icmp uge i32 %48, %49
  br i1 %50, label %51, label %52

51:                                               ; preds = %47
  store i64 -1, ptr %5, align 8
  store i32 1, ptr %20, align 4
  br label %225

52:                                               ; preds = %47
  %53 = load i64, ptr %6, align 8, !tbaa !3
  %54 = call i32 @H5Aexists(i64 noundef %53, ptr noundef @.str.8)
  store i32 %54, ptr %10, align 4, !tbaa !16
  %55 = icmp slt i32 %54, 0
  br i1 %55, label %56, label %57

56:                                               ; preds = %52
  store i64 -1, ptr %5, align 8
  store i32 1, ptr %20, align 4
  br label %225

57:                                               ; preds = %52
  %58 = load i32, ptr %10, align 4, !tbaa !16
  %59 = icmp eq i32 %58, 0
  br i1 %59, label %60, label %67

60:                                               ; preds = %57
  %61 = load ptr, ptr %8, align 8, !tbaa !14
  %62 = icmp ne ptr %61, null
  br i1 %62, label %63, label %66

63:                                               ; preds = %60
  %64 = load ptr, ptr %8, align 8, !tbaa !14
  %65 = getelementptr inbounds i8, ptr %64, i64 0
  store i8 0, ptr %65, align 1, !tbaa !32
  br label %66

66:                                               ; preds = %63, %60
  store i64 0, ptr %5, align 8
  store i32 1, ptr %20, align 4
  br label %225

67:                                               ; preds = %57
  %68 = load i64, ptr %6, align 8, !tbaa !3
  %69 = call i64 @H5Aopen(i64 noundef %68, ptr noundef @.str.8, i64 noundef 0)
  store i64 %69, ptr %13, align 8, !tbaa !3
  %70 = icmp slt i64 %69, 0
  br i1 %70, label %71, label %72

71:                                               ; preds = %67
  br label %170

72:                                               ; preds = %67
  %73 = load i64, ptr %13, align 8, !tbaa !3
  %74 = call i64 @H5Aget_type(i64 noundef %73)
  store i64 %74, ptr %12, align 8, !tbaa !3
  %75 = icmp slt i64 %74, 0
  br i1 %75, label %76, label %77

76:                                               ; preds = %72
  br label %170

77:                                               ; preds = %72
  %78 = load i32, ptr %14, align 4, !tbaa !16
  %79 = sext i32 %78 to i64
  %80 = mul i64 %79, 8
  %81 = call noalias ptr @malloc(i64 noundef %80) #11
  store ptr %81, ptr %15, align 8, !tbaa !56
  %82 = load ptr, ptr %15, align 8, !tbaa !56
  %83 = icmp eq ptr %82, null
  br i1 %83, label %84, label %85

84:                                               ; preds = %77
  br label %170

85:                                               ; preds = %77
  %86 = load i64, ptr %13, align 8, !tbaa !3
  %87 = load i64, ptr %12, align 8, !tbaa !3
  %88 = load ptr, ptr %15, align 8, !tbaa !56
  %89 = call i32 @H5Aread(i64 noundef %86, i64 noundef %87, ptr noundef %88)
  %90 = icmp slt i32 %89, 0
  br i1 %90, label %91, label %92

91:                                               ; preds = %85
  br label %170

92:                                               ; preds = %85
  %93 = load ptr, ptr %15, align 8, !tbaa !56
  %94 = load i32, ptr %7, align 4, !tbaa !16
  %95 = zext i32 %94 to i64
  %96 = getelementptr inbounds nuw ptr, ptr %93, i64 %95
  %97 = load ptr, ptr %96, align 8, !tbaa !14
  %98 = icmp ne ptr %97, null
  br i1 %98, label %99, label %131

99:                                               ; preds = %92
  %100 = load ptr, ptr %15, align 8, !tbaa !56
  %101 = load i32, ptr %7, align 4, !tbaa !16
  %102 = zext i32 %101 to i64
  %103 = getelementptr inbounds nuw ptr, ptr %100, i64 %102
  %104 = load ptr, ptr %103, align 8, !tbaa !14
  %105 = call i64 @strlen(ptr noundef %104) #13
  store i64 %105, ptr %17, align 8, !tbaa !3
  %106 = load i64, ptr %9, align 8, !tbaa !3
  %107 = sub i64 %106, 1
  %108 = load i64, ptr %17, align 8, !tbaa !3
  %109 = icmp ult i64 %107, %108
  br i1 %109, label %110, label %113

110:                                              ; preds = %99
  %111 = load i64, ptr %9, align 8, !tbaa !3
  %112 = sub i64 %111, 1
  br label %115

113:                                              ; preds = %99
  %114 = load i64, ptr %17, align 8, !tbaa !3
  br label %115

115:                                              ; preds = %113, %110
  %116 = phi i64 [ %112, %110 ], [ %114, %113 ]
  store i64 %116, ptr %18, align 8, !tbaa !3
  %117 = load ptr, ptr %8, align 8, !tbaa !14
  %118 = icmp ne ptr %117, null
  br i1 %118, label %119, label %130

119:                                              ; preds = %115
  %120 = load ptr, ptr %8, align 8, !tbaa !14
  %121 = load ptr, ptr %15, align 8, !tbaa !56
  %122 = load i32, ptr %7, align 4, !tbaa !16
  %123 = zext i32 %122 to i64
  %124 = getelementptr inbounds nuw ptr, ptr %121, i64 %123
  %125 = load ptr, ptr %124, align 8, !tbaa !14
  %126 = load i64, ptr %18, align 8, !tbaa !3
  call void @llvm.memcpy.p0.p0.i64(ptr align 1 %120, ptr align 1 %125, i64 %126, i1 false)
  %127 = load ptr, ptr %8, align 8, !tbaa !14
  %128 = load i64, ptr %18, align 8, !tbaa !3
  %129 = getelementptr inbounds nuw i8, ptr %127, i64 %128
  store i8 0, ptr %129, align 1, !tbaa !32
  br label %130

130:                                              ; preds = %119, %115
  br label %131

131:                                              ; preds = %130, %92
  store i32 0, ptr %19, align 4, !tbaa !16
  br label %132

132:                                              ; preds = %150, %131
  %133 = load i32, ptr %19, align 4, !tbaa !16
  %134 = load i32, ptr %14, align 4, !tbaa !16
  %135 = icmp slt i32 %133, %134
  br i1 %135, label %136, label %153

136:                                              ; preds = %132
  %137 = load ptr, ptr %15, align 8, !tbaa !56
  %138 = load i32, ptr %19, align 4, !tbaa !16
  %139 = sext i32 %138 to i64
  %140 = getelementptr inbounds ptr, ptr %137, i64 %139
  %141 = load ptr, ptr %140, align 8, !tbaa !14
  %142 = icmp ne ptr %141, null
  br i1 %142, label %143, label %149

143:                                              ; preds = %136
  %144 = load ptr, ptr %15, align 8, !tbaa !56
  %145 = load i32, ptr %19, align 4, !tbaa !16
  %146 = sext i32 %145 to i64
  %147 = getelementptr inbounds ptr, ptr %144, i64 %146
  %148 = load ptr, ptr %147, align 8, !tbaa !14
  call void @free(ptr noundef %148) #10
  br label %149

149:                                              ; preds = %143, %136
  br label %150

150:                                              ; preds = %149
  %151 = load i32, ptr %19, align 4, !tbaa !16
  %152 = add nsw i32 %151, 1
  store i32 %152, ptr %19, align 4, !tbaa !16
  br label %132, !llvm.loop !58

153:                                              ; preds = %132
  %154 = load i64, ptr %12, align 8, !tbaa !3
  %155 = call i32 @H5Tclose(i64 noundef %154)
  %156 = icmp slt i32 %155, 0
  br i1 %156, label %157, label %158

157:                                              ; preds = %153
  br label %170

158:                                              ; preds = %153
  %159 = load i64, ptr %13, align 8, !tbaa !3
  %160 = call i32 @H5Aclose(i64 noundef %159)
  %161 = icmp slt i32 %160, 0
  br i1 %161, label %162, label %163

162:                                              ; preds = %158
  br label %170

163:                                              ; preds = %158
  %164 = load ptr, ptr %15, align 8, !tbaa !56
  %165 = icmp ne ptr %164, null
  br i1 %165, label %166, label %168

166:                                              ; preds = %163
  %167 = load ptr, ptr %15, align 8, !tbaa !56
  call void @free(ptr noundef %167) #10
  store ptr null, ptr %15, align 8, !tbaa !56
  br label %168

168:                                              ; preds = %166, %163
  %169 = load i64, ptr %17, align 8, !tbaa !3
  store i64 %169, ptr %5, align 8
  store i32 1, ptr %20, align 4
  br label %225

170:                                              ; preds = %162, %157, %91, %84, %76, %71, %46, %41
  %171 = load ptr, ptr %15, align 8, !tbaa !56
  %172 = icmp ne ptr %171, null
  br i1 %172, label %173, label %197

173:                                              ; preds = %170
  store i32 0, ptr %19, align 4, !tbaa !16
  br label %174

174:                                              ; preds = %192, %173
  %175 = load i32, ptr %19, align 4, !tbaa !16
  %176 = load i32, ptr %14, align 4, !tbaa !16
  %177 = icmp slt i32 %175, %176
  br i1 %177, label %178, label %195

178:                                              ; preds = %174
  %179 = load ptr, ptr %15, align 8, !tbaa !56
  %180 = load i32, ptr %19, align 4, !tbaa !16
  %181 = sext i32 %180 to i64
  %182 = getelementptr inbounds ptr, ptr %179, i64 %181
  %183 = load ptr, ptr %182, align 8, !tbaa !14
  %184 = icmp ne ptr %183, null
  br i1 %184, label %185, label %191

185:                                              ; preds = %178
  %186 = load ptr, ptr %15, align 8, !tbaa !56
  %187 = load i32, ptr %19, align 4, !tbaa !16
  %188 = sext i32 %187 to i64
  %189 = getelementptr inbounds ptr, ptr %186, i64 %188
  %190 = load ptr, ptr %189, align 8, !tbaa !14
  call void @free(ptr noundef %190) #10
  br label %191

191:                                              ; preds = %185, %178
  br label %192

192:                                              ; preds = %191
  %193 = load i32, ptr %19, align 4, !tbaa !16
  %194 = add nsw i32 %193, 1
  store i32 %194, ptr %19, align 4, !tbaa !16
  br label %174, !llvm.loop !59

195:                                              ; preds = %174
  %196 = load ptr, ptr %15, align 8, !tbaa !56
  call void @free(ptr noundef %196) #10
  br label %197

197:                                              ; preds = %195, %170
  call void @llvm.lifetime.start.p0(i64 4, ptr %21) #10
  call void @llvm.lifetime.start.p0(i64 8, ptr %22) #10
  call void @llvm.lifetime.start.p0(i64 8, ptr %23) #10
  %198 = call i32 @H5Eauto_is_v2(i64 noundef 0, ptr noundef %21)
  %199 = load i32, ptr %21, align 4, !tbaa !16
  %200 = icmp ne i32 %199, 0
  br i1 %200, label %201, label %204

201:                                              ; preds = %197
  %202 = call i32 @H5Eget_auto2(i64 noundef 0, ptr noundef %22, ptr noundef %23)
  %203 = call i32 @H5Eset_auto2(i64 noundef 0, ptr noundef null, ptr noundef null)
  br label %207

204:                                              ; preds = %197
  %205 = call i32 @H5Eget_auto1(ptr noundef %22, ptr noundef %23)
  %206 = call i32 @H5Eset_auto1(ptr noundef null, ptr noundef null)
  br label %207

207:                                              ; preds = %204, %201
  %208 = load i64, ptr %11, align 8, !tbaa !3
  %209 = call i32 @H5Sclose(i64 noundef %208)
  %210 = load i64, ptr %13, align 8, !tbaa !3
  %211 = call i32 @H5Aclose(i64 noundef %210)
  %212 = load i64, ptr %12, align 8, !tbaa !3
  %213 = call i32 @H5Tclose(i64 noundef %212)
  %214 = load i32, ptr %21, align 4, !tbaa !16
  %215 = icmp ne i32 %214, 0
  br i1 %215, label %216, label %220

216:                                              ; preds = %207
  %217 = load ptr, ptr %22, align 8, !tbaa !32
  %218 = load ptr, ptr %23, align 8, !tbaa !22
  %219 = call i32 @H5Eset_auto2(i64 noundef 0, ptr noundef %217, ptr noundef %218)
  br label %224

220:                                              ; preds = %207
  %221 = load ptr, ptr %22, align 8, !tbaa !32
  %222 = load ptr, ptr %23, align 8, !tbaa !22
  %223 = call i32 @H5Eset_auto1(ptr noundef %221, ptr noundef %222)
  br label %224

224:                                              ; preds = %220, %216
  call void @llvm.lifetime.end.p0(i64 8, ptr %23) #10
  call void @llvm.lifetime.end.p0(i64 8, ptr %22) #10
  call void @llvm.lifetime.end.p0(i64 4, ptr %21) #10
  store i64 -1, ptr %5, align 8
  store i32 1, ptr %20, align 4
  br label %225

225:                                              ; preds = %224, %168, %66, %56, %51, %36, %31, %27
  call void @llvm.lifetime.end.p0(i64 4, ptr %19) #10
  call void @llvm.lifetime.end.p0(i64 8, ptr %18) #10
  call void @llvm.lifetime.end.p0(i64 8, ptr %17) #10
  call void @llvm.lifetime.end.p0(i64 4, ptr %16) #10
  call void @llvm.lifetime.end.p0(i64 8, ptr %15) #10
  call void @llvm.lifetime.end.p0(i64 4, ptr %14) #10
  call void @llvm.lifetime.end.p0(i64 8, ptr %13) #10
  call void @llvm.lifetime.end.p0(i64 8, ptr %12) #10
  call void @llvm.lifetime.end.p0(i64 8, ptr %11) #10
  call void @llvm.lifetime.end.p0(i64 4, ptr %10) #10
  %226 = load i64, ptr %5, align 8
  ret i64 %226
}