; Function Attrs: nounwind uwtable
define i64 @H5DSget_label(i64 noundef %0, i32 noundef %1, ptr noundef writeonly captures(address_is_null) %2, i64 noundef %3) local_unnamed_addr #0 {
  %5 = alloca i32, align 4
  %6 = alloca %union.anon.8, align 8
  %7 = alloca ptr, align 8
  %8 = tail call i32 @H5Iget_type(i64 noundef %0) #10
  %.not = icmp eq i32 %8, 5
  br i1 %.not, label %9, label %84

9:                                                ; preds = %4
  %10 = tail call i64 @H5Dget_space(i64 noundef %0) #10
  %11 = icmp slt i64 %10, 0
  br i1 %11, label %84, label %12

12:                                               ; preds = %9
  %13 = tail call i32 @H5Sget_simple_extent_ndims(i64 noundef %10) #10
  %14 = icmp slt i32 %13, 0
  br i1 %14, label %.thread, label %15

15:                                               ; preds = %12
  %16 = tail call i32 @H5Sclose(i64 noundef %10) #10
  %17 = icmp slt i32 %16, 0
  br i1 %17, label %.thread, label %18

18:                                               ; preds = %15
  %.not78 = icmp ult i32 %1, %13
  br i1 %.not78, label %19, label %84

19:                                               ; preds = %18
  %20 = tail call i32 @H5Aexists(i64 noundef %0, ptr noundef nonnull @.str.8) #10
  %21 = icmp slt i32 %20, 0
  br i1 %21, label %84, label %22

22:                                               ; preds = %19
  %23 = icmp eq i32 %20, 0
  br i1 %23, label %24, label %26

24:                                               ; preds = %22
  %.not82 = icmp eq ptr %2, null
  br i1 %.not82, label %84, label %25

25:                                               ; preds = %24
  store i8 0, ptr %2, align 1, !tbaa !17
  br label %84

26:                                               ; preds = %22
  %27 = tail call i64 @H5Aopen(i64 noundef %0, ptr noundef nonnull @.str.8, i64 noundef 0) #10
  %28 = icmp slt i64 %27, 0
  br i1 %28, label %.thread, label %29

29:                                               ; preds = %26
  %30 = tail call i64 @H5Aget_type(i64 noundef %27) #10
  %31 = icmp slt i64 %30, 0
  br i1 %31, label %.thread, label %32

32:                                               ; preds = %29
  %33 = zext nneg i32 %13 to i64
  %34 = shl nuw nsw i64 %33, 3
  %35 = tail call noalias ptr @malloc(i64 noundef %34) #11
  %36 = icmp eq ptr %35, null
  br i1 %36, label %.thread, label %37

37:                                               ; preds = %32
  %38 = tail call i32 @H5Aread(i64 noundef %27, i64 noundef %30, ptr noundef nonnull %35) #10
  %39 = icmp slt i32 %38, 0
  br i1 %39, label %.lr.ph96.preheader, label %40

40:                                               ; preds = %37
  %41 = zext nneg i32 %1 to i64
  %42 = getelementptr inbounds nuw ptr, ptr %35, i64 %41
  %43 = load ptr, ptr %42, align 8, !tbaa !43
  %.not79 = icmp eq ptr %43, null
  br i1 %.not79, label %.lr.ph.preheader, label %44

44:                                               ; preds = %40
  %45 = tail call i64 @strlen(ptr noundef nonnull dereferenceable(1) %43) #13
  %.not80 = icmp eq ptr %2, null
  br i1 %.not80, label %.lr.ph.preheader, label %46

46:                                               ; preds = %44
  %47 = add i64 %3, -1
  %48 = tail call i64 @llvm.umin.i64(i64 %47, i64 %45)
  tail call void @llvm.memcpy.p0.p0.i64(ptr nonnull align 1 %2, ptr nonnull align 1 %43, i64 %48, i1 false)
  %49 = getelementptr inbounds nuw i8, ptr %2, i64 %48
  store i8 0, ptr %49, align 1, !tbaa !17
  br label %.lr.ph.preheader

.lr.ph.preheader:                                 ; preds = %40, %46, %44
  %.058 = phi i64 [ %45, %46 ], [ %45, %44 ], [ 0, %40 ]
  %wide.trip.count = zext nneg i32 %13 to i64
  br label %.lr.ph

.lr.ph:                                           ; preds = %.lr.ph.preheader, %53
  %indvars.iv = phi i64 [ 0, %.lr.ph.preheader ], [ %indvars.iv.next, %53 ]
  %50 = getelementptr inbounds nuw ptr, ptr %35, i64 %indvars.iv
  %51 = load ptr, ptr %50, align 8, !tbaa !43
  %.not81 = icmp eq ptr %51, null
  br i1 %.not81, label %53, label %52

52:                                               ; preds = %.lr.ph
  tail call void @free(ptr noundef nonnull %51) #10
  br label %53

53:                                               ; preds = %.lr.ph, %52
  %indvars.iv.next = add nuw nsw i64 %indvars.iv, 1
  %exitcond.not = icmp eq i64 %indvars.iv.next, %wide.trip.count
  br i1 %exitcond.not, label %._crit_edge, label %.lr.ph, !llvm.loop !47

._crit_edge:                                      ; preds = %53
  %54 = tail call i32 @H5Tclose(i64 noundef %30) #10
  %55 = icmp slt i32 %54, 0
  br i1 %55, label %.lr.ph96.preheader, label %56

56:                                               ; preds = %._crit_edge
  %57 = tail call i32 @H5Aclose(i64 noundef %27) #10
  %58 = icmp slt i32 %57, 0
  br i1 %58, label %.lr.ph96.preheader, label %59

59:                                               ; preds = %56
  tail call void @free(ptr noundef nonnull %35) #10
  br label %84

.lr.ph96.preheader:                               ; preds = %37, %._crit_edge, %56
  %smax102 = tail call i32 @llvm.smax.i32(i32 %13, i32 1)
  %wide.trip.count103 = zext nneg i32 %smax102 to i64
  br label %.lr.ph96

.lr.ph96:                                         ; preds = %.lr.ph96.preheader, %63
  %indvars.iv99 = phi i64 [ 0, %.lr.ph96.preheader ], [ %indvars.iv.next100, %63 ]
  %60 = getelementptr inbounds nuw ptr, ptr %35, i64 %indvars.iv99
  %61 = load ptr, ptr %60, align 8, !tbaa !43
  %.not86 = icmp eq ptr %61, null
  br i1 %.not86, label %63, label %62

62:                                               ; preds = %.lr.ph96
  tail call void @free(ptr noundef nonnull %61) #10
  br label %63

63:                                               ; preds = %.lr.ph96, %62
  %indvars.iv.next100 = add nuw nsw i64 %indvars.iv99, 1
  %exitcond104.not = icmp eq i64 %indvars.iv.next100, %wide.trip.count103
  br i1 %exitcond104.not, label %._crit_edge97, label %.lr.ph96, !llvm.loop !48

._crit_edge97:                                    ; preds = %63
  tail call void @free(ptr noundef nonnull %35) #10
  br label %.thread

.thread:                                          ; preds = %32, %29, %26, %15, %12, %._crit_edge97
  %.06092 = phi i64 [ %30, %._crit_edge97 ], [ %30, %32 ], [ %30, %29 ], [ -1, %26 ], [ -1, %15 ], [ -1, %12 ]
  %.06191 = phi i64 [ %27, %._crit_edge97 ], [ %27, %32 ], [ %27, %29 ], [ %27, %26 ], [ -1, %15 ], [ -1, %12 ]
  call void @llvm.lifetime.start.p0(i64 4, ptr nonnull %5) #10
  call void @llvm.lifetime.start.p0(i64 8, ptr nonnull %6) #10
  call void @llvm.lifetime.start.p0(i64 8, ptr nonnull %7) #10
  %64 = call i32 @H5Eauto_is_v2(i64 noundef 0, ptr noundef nonnull %5) #10
  %65 = load i32, ptr %5, align 4, !tbaa !14
  %.not84 = icmp eq i32 %65, 0
  br i1 %.not84, label %69, label %66

66:                                               ; preds = %.thread
  %67 = call i32 @H5Eget_auto2(i64 noundef 0, ptr noundef nonnull %6, ptr noundef nonnull %7) #10
  %68 = call i32 @H5Eset_auto2(i64 noundef 0, ptr noundef null, ptr noundef null) #10
  br label %72

69:                                               ; preds = %.thread
  %70 = call i32 @H5Eget_auto1(ptr noundef nonnull %6, ptr noundef nonnull %7) #10
  %71 = call i32 @H5Eset_auto1(ptr noundef null, ptr noundef null) #10
  br label %72

72:                                               ; preds = %69, %66
  %73 = call i32 @H5Sclose(i64 noundef %10) #10
  %74 = call i32 @H5Aclose(i64 noundef %.06191) #10
  %75 = call i32 @H5Tclose(i64 noundef %.06092) #10
  %76 = load i32, ptr %5, align 4, !tbaa !14
  %.not85 = icmp eq i32 %76, 0
  %77 = load ptr, ptr %6, align 8, !tbaa !17
  %78 = load ptr, ptr %7, align 8, !tbaa !33
  br i1 %.not85, label %81, label %79

79:                                               ; preds = %72
  %80 = call i32 @H5Eset_auto2(i64 noundef 0, ptr noundef %77, ptr noundef %78) #10
  br label %83

81:                                               ; preds = %72
  %82 = call i32 @H5Eset_auto1(ptr noundef %77, ptr noundef %78) #10
  br label %83

83:                                               ; preds = %81, %79
  call void @llvm.lifetime.end.p0(i64 8, ptr nonnull %7) #10
  call void @llvm.lifetime.end.p0(i64 8, ptr nonnull %6) #10
  call void @llvm.lifetime.end.p0(i64 4, ptr nonnull %5) #10
  br label %84

84:                                               ; preds = %24, %25, %19, %18, %9, %4, %83, %59
  %.057 = phi i64 [ -1, %83 ], [ %.058, %59 ], [ -1, %4 ], [ -1, %9 ], [ -1, %18 ], [ -1, %19 ], [ 0, %25 ], [ 0, %24 ]
  ret i64 %.057
}